; Function Attrs: null_pointer_is_valid sspstrong uwtable
define internal fastcc void @proto_tree_write_node_ek(ptr noundef readonly captures(none) %0, ptr noundef %1) unnamed_addr #0 {
  %3 = alloca %struct._GHashTableIter, align 8
  %4 = alloca ptr, align 8
  %5 = alloca ptr, align 8
  %6 = tail call ptr @g_hash_table_new_full(ptr noundef nonnull @g_str_hash, ptr noundef nonnull @g_str_equal, ptr noundef nonnull @g_free, ptr noundef null)
  call void @llvm.lifetime.start.p0(i64 40, ptr nonnull %3) #21
  call void @llvm.lifetime.start.p0(i64 8, ptr nonnull %4) #21
  call void @llvm.lifetime.start.p0(i64 8, ptr nonnull %5) #21
  tail call fastcc void @ek_fill_attr(ptr noundef %0, ptr noundef %6, ptr noundef %1)
  call void @g_hash_table_iter_init(ptr noundef nonnull %3, ptr noundef %6)
  %7 = call i32 @g_hash_table_iter_next(ptr noundef nonnull %3, ptr noundef nonnull %4, ptr noundef nonnull %5)
  %.not6 = icmp eq i32 %7, 0
  br i1 %.not6, label %._crit_edge, label %.lr.ph

.lr.ph:                                           ; preds = %2, %.lr.ph
  %8 = load ptr, ptr %5, align 8
  call fastcc void @ek_write_attr(ptr noundef %8, ptr noundef %1)
  call void @g_hash_table_iter_remove(ptr noundef nonnull %3)
  %9 = load ptr, ptr %5, align 8
  call void @g_slist_free(ptr noundef %9)
  %10 = call i32 @g_hash_table_iter_next(ptr noundef nonnull %3, ptr noundef nonnull %4, ptr noundef nonnull %5)
  %.not = icmp eq i32 %10, 0
  br i1 %.not, label %._crit_edge, label %.lr.ph, !llvm.loop !22

._crit_edge:                                      ; preds = %.lr.ph, %2
  call void @g_hash_table_destroy(ptr noundef %6)
  call void @llvm.lifetime.end.p0(i64 8, ptr nonnull %5) #21
  call void @llvm.lifetime.end.p0(i64 8, ptr nonnull %4) #21
  call void @llvm.lifetime.end.p0(i64 40, ptr nonnull %3) #21
  ret void
}